; ModuleID = '54/964.c'
source_filename = "54/964.c"
target datalayout = "e-m:e-p270:32:32-p271:32:32-p272:64:64-i64:64-f80:128-n8:16:32:64-S128"
target triple = "x86_64-pc-linux-gnu"

@.str = private unnamed_addr constant [5 x i8] c"%d%d\00", align 1
@.str.1 = private unnamed_addr constant [3 x i8] c"%d\00", align 1

; Function Attrs: noinline nounwind uwtable
define dso_local i32 @main() #0 {
  %1 = alloca i32, align 4
  %2 = alloca i32, align 4
  %3 = alloca i32, align 4
  %4 = alloca i32, align 4
  store i32 0, i32* %1, align 4
  %5 = call i32 (i8*, ...) @__isoc99_scanf(i8* getelementptr inbounds ([5 x i8], [5 x i8]* @.str, i64 0, i64 0), i32* %2, i32* %3)
  %6 = load i32, i32* %2, align 4
  %7 = load i32, i32* %3, align 4
  %8 = call i32 @apple(i32 %6, i32 %7)
  store i32 %8, i32* %4, align 4
  %9 = load i32, i32* %4, align 4
  %10 = call i32 (i8*, ...) @printf(i8* getelementptr inbounds ([3 x i8], [3 x i8]* @.str.1, i64 0, i64 0), i32 %9)
  ret i32 0
}

declare dso_local i32 @__isoc99_scanf(i8*, ...) #1

; Function Attrs: noinline nounwind uwtable
define dso_local i32 @apple(i32 %0, i32 %1) #0 {
  %3 = alloca i32, align 4
  %4 = alloca i32, align 4
  %5 = alloca i32, align 4
  %6 = alloca i32, align 4
  %7 = alloca i32, align 4
  %8 = alloca i32, align 4
  %9 = alloca i32, align 4
  store i32 %0, i32* %4, align 4
  store i32 %1, i32* %5, align 4
  store i32 0, i32* %7, align 4
  %10 = load i32, i32* %4, align 4
  %11 = icmp eq i32 %10, 1
  br i1 %11, label %12, label %17

12:                                               ; preds = %2
  %13 = load i32, i32* %4, align 4
  %14 = mul nsw i32 1, %13
  %15 = load i32, i32* %5, align 4
  %16 = add nsw i32 %14, %15
  store i32 %16, i32* %3, align 4
  br label %69

17:                                               ; preds = %2
  %18 = load i32, i32* %4, align 4
  %19 = icmp sge i32 %18, 2
  br i1 %19, label %20, label %69

20:                                               ; preds = %17
  store i32 1, i32* %6, align 4
  br label %21

21:                                               ; preds = %64, %20
  %22 = load i32, i32* %6, align 4
  %23 = icmp sle i32 %22, 100000000
  br i1 %23, label %24, label %67

24:                                               ; preds = %21
  store i32 0, i32* %9, align 4
  %25 = load i32, i32* %6, align 4
  %26 = load i32, i32* %4, align 4
  %27 = mul nsw i32 %25, %26
  %28 = load i32, i32* %5, align 4
  %29 = add nsw i32 %27, %28
  store i32 %29, i32* %7, align 4
  store i32 1, i32* %8, align 4
  br label %30

30:                                               ; preds = %54, %24
  %31 = load i32, i32* %8, align 4
  %32 = load i32, i32* %4, align 4
  %33 = sub nsw i32 %32, 1
  %34 = icmp sle i32 %31, %33
  br i1 %34, label %35, label %57

35:                                               ; preds = %30
  %36 = load i32, i32* %7, align 4
  %37 = load i32, i32* %4, align 4
  %38 = sub nsw i32 %37, 1
  %39 = srem i32 %36, %38
  %40 = icmp eq i32 %39, 0
  br i1 %40, label %41, label %52

41:                                               ; preds = %35
  %42 = load i32, i32* %7, align 4
  %43 = load i32, i32* %4, align 4
  %44 = mul nsw i32 %42, %43
  %45 = load i32, i32* %4, align 4
  %46 = sub nsw i32 %45, 1
  %47 = sdiv i32 %44, %46
  %48 = load i32, i32* %5, align 4
  %49 = add nsw i32 %47, %48
  store i32 %49, i32* %7, align 4
  %50 = load i32, i32* %9, align 4
  %51 = add nsw i32 %50, 1
  store i32 %51, i32* %9, align 4
  br label %53

52:                                               ; preds = %35
  br label %57

53:                                               ; preds = %41
  br label %54

54:                                               ; preds = %53
  %55 = load i32, i32* %8, align 4
  %56 = add nsw i32 %55, 1
  store i32 %56, i32* %8, align 4
  br label %30

57:                                               ; preds = %52, %30
  %58 = load i32, i32* %9, align 4
  %59 = load i32, i32* %4, align 4
  %60 = sub nsw i32 %59, 1
  %61 = icmp eq i32 %58, %60
  br i1 %61, label %62, label %63

62:                                               ; preds = %57
  br label %67

63:                                               ; preds = %57
  br label %64

64:                                               ; preds = %63
  %65 = load i32, i32* %6, align 4
  %66 = add nsw i32 %65, 1
  store i32 %66, i32* %6, align 4
  br label %21

67:                                               ; preds = %62, %21
  %68 = load i32, i32* %7, align 4
  store i32 %68, i32* %3, align 4
  br label %69

69:                                               ; preds = %12, %67, %17
  %70 = load i32, i32* %3, align 4
  ret i32 %70
}

declare dso_local i32 @printf(i8*, ...) #1


!llvm.module.flags = !{!0}
!llvm.ident = !{!1}

!0 = !{i32 1, !"wchar_size", i32 4}
!1 = !{!"clang version 10.0.0-4ubuntu1 "}
